Certificate:
    Data:
        Version: 3 (0x2)
        Serial Number: 1 (0x1)
    Signature Algorithm: sha256WithRSAEncryption
        Issuer: C=DE, ST=Munchen, O=Congiv GmbH, OU=EMS ng, CN=EMS signing CA
        Validity
            Not Before: Oct  1 15:06:06 2018 GMT
            Not After : Sep 30 15:06:06 2023 GMT
        Subject: C=DE, ST=Munchen, L=Freimann, O=Congiv GmbH, OU=EMS ng, CN=VerneMQ broker certificate
        Subject Public Key Info:
            Public Key Algorithm: rsaEncryption
                Public-Key: (2048 bit)
                Modulus:
                    00:c0:c6:39:ae:95:b1:fd:66:5e:d1:61:7e:8a:57:
                    b2:d0:2e:a4:01:bf:9d:ea:f2:0e:c3:af:d8:ed:f1:
                    67:4a:74:3c:25:79:52:91:83:bb:5e:d2:89:88:7d:
                    b7:f5:d2:34:32:15:46:d8:63:a6:36:d7:e3:73:33:
                    6a:98:9f:69:53:1c:63:33:66:a5:78:ef:9c:b5:5e:
                    dd:7d:fc:30:0e:0c:3e:c8:ab:27:b3:a9:5c:df:af:
                    75:d3:0c:ef:7b:21:2e:a7:94:7f:75:fc:72:7d:f5:
                    a1:0d:78:28:f2:29:37:92:23:8e:77:a2:96:77:fb:
                    b1:30:6b:9c:ac:62:b4:bb:ab:b1:ab:9f:0c:63:1d:
                    8f:2d:a6:62:ae:5a:83:f4:09:09:17:90:c6:c1:65:
                    ae:fd:06:e3:35:49:44:ed:e7:59:b7:d5:6a:28:01:
                    fc:cc:3e:ef:db:cb:70:b6:09:1d:ab:b5:ce:70:33:
                    c6:32:dd:ae:02:52:8a:8b:8d:94:8a:7f:a7:56:85:
                    c7:5f:ad:33:5e:9b:7b:1e:05:29:4f:7d:72:e6:34:
                    0e:29:62:60:5e:e3:b0:bd:26:f5:64:9c:ce:45:8a:
                    01:7e:f2:15:48:5c:86:50:5d:36:19:94:44:d1:a8:
                    ae:f4:28:62:bb:5c:95:f8:d5:d7:36:3d:d2:32:e4:
                    34:61
                Exponent: 65537 (0x10001)
        X509v3 extensions:
            X509v3 Basic Constraints: 
                CA:FALSE
            Netscape Comment: 
                OpenSSL Generated Certificate for the EMS project Yassine and Angjel
            X509v3 Subject Key Identifier: 
                9D:AA:15:87:BA:AC:F9:C5:8F:2F:CE:1E:4E:0D:E0:D9:4F:BE:AE:8A
            X509v3 Authority Key Identifier: 
                keyid:EF:38:A6:E1:FD:08:B1:BD:04:FD:B6:D5:CD:60:43:AD:74:D0:EB:63

    Signature Algorithm: sha256WithRSAEncryption
         07:85:d1:bd:e1:05:19:b9:52:f7:21:96:19:2f:6c:0d:64:44:
         30:12:a4:84:c2:f4:dc:fc:ab:a9:ee:27:df:c0:f2:32:e4:3e:
         a0:70:58:b0:27:68:36:05:0a:40:57:43:d0:18:a6:76:8c:bb:
         17:a8:09:61:ab:1c:1e:83:dd:19:16:66:a8:ef:f7:4f:cc:ab:
         75:7b:2f:6b:7f:a2:e7:64:47:94:62:34:d7:80:02:99:67:79:
         ca:2c:a4:52:2d:ec:6c:9d:b8:d1:8b:11:12:4f:a3:a5:0d:65:
         c1:41:12:e4:24:5f:cb:e0:b6:dd:58:9b:d0:2c:cb:63:1b:eb:
         63:18:d0:45:5b:5b:08:bf:01:2b:64:b7:ef:2d:1e:b2:94:a0:
         31:c7:c0:1f:84:0c:6f:0b:01:43:d8:5f:c1:0c:69:c4:bb:88:
         43:f5:4d:ab:a8:36:58:1e:66:3d:cf:61:df:fd:8a:4c:f8:57:
         ac:e6:52:58:ba:ac:0c:07:17:a8:1e:67:d1:13:62:06:d6:03:
         dc:fe:a0:21:69:b7:50:46:09:d6:bb:db:5f:10:15:71:61:f4:
         f1:1f:a6:11:dd:20:fc:a2:b0:04:53:51:0f:82:f1:b5:61:4a:
         83:5a:29:fd:ce:c0:74:97:0e:b8:29:53:13:ad:8d:20:7f:9a:
         33:97:6c:1c
-----BEGIN CERTIFICATE-----
MIID/DCCAuSgAwIBAgIBATANBgkqhkiG9w0BAQsFADBfMQswCQYDVQQGEwJERTEQ
MA4GA1UECAwHTXVuY2hlbjEUMBIGA1UECgwLQ29uZ2l2IEdtYkgxDzANBgNVBAsM
BkVNUyBuZzEXMBUGA1UEAwwORU1TIHNpZ25pbmcgQ0EwHhcNMTgxMDAxMTUwNjA2
WhcNMjMwOTMwMTUwNjA2WjB+MQswCQYDVQQGEwJERTEQMA4GA1UECAwHTXVuY2hl
bjERMA8GA1UEBwwIRnJlaW1hbm4xFDASBgNVBAoMC0NvbmdpdiBHbWJIMQ8wDQYD
VQQLDAZFTVMgbmcxIzAhBgNVBAMMGlZlcm5lTVEgYnJva2VyIGNlcnRpZmljYXRl
MIIBIjANBgkqhkiG9w0BAQEFAAOCAQ8AMIIBCgKCAQEAwMY5rpWx/WZe0WF+iley
0C6kAb+d6vIOw6/Y7fFnSnQ8JXlSkYO7XtKJiH239dI0MhVG2GOmNtfjczNqmJ9p
UxxjM2aleO+ctV7dffwwDgw+yKsns6lc36910wzveyEup5R/dfxyffWhDXgo8ik3
kiOOd6KWd/uxMGucrGK0u6uxq58MYx2PLaZirlqD9AkJF5DGwWWu/QbjNUlE7edZ
t9VqKAH8zD7v28twtgkdq7XOcDPGMt2uAlKKi42Uin+nVoXHX60zXpt7HgUpT31y
5jQOKWJgXuOwvSb1ZJzORYoBfvIVSFyGUF02GZRE0aiu9Chiu1yV+NXXNj3SMuQ0
YQIDAQABo4GjMIGgMAkGA1UdEwQCMAAwUwYJYIZIAYb4QgENBEYWRE9wZW5TU0wg
R2VuZXJhdGVkIENlcnRpZmljYXRlIGZvciB0aGUgRU1TIHByb2plY3QgWWFzc2lu
ZSBhbmQgQW5namVsMB0GA1UdDgQWBBSdqhWHuqz5xY8vzh5ODeDZT76uijAfBgNV
HSMEGDAWgBTvOKbh/QixvQT9ttXNYEOtdNDrYzANBgkqhkiG9w0BAQsFAAOCAQEA
B4XRveEFGblS9yGWGS9sDWREMBKkhML03Pyrqe4n38DyMuQ+oHBYsCdoNgUKQFdD
0Bimdoy7F6gJYascHoPdGRZmqO/3T8yrdXsva3+i52RHlGI014ACmWd5yiykUi3s
bJ240YsREk+jpQ1lwUES5CRfy+C23Vib0CzLYxvrYxjQRVtbCL8BK2S37y0espSg
McfAH4QMbwsBQ9hfwQxpxLuIQ/VNq6g2WB5mPc9h3/2KTPhXrOZSWLqsDAcXqB5n
0RNiBtYD3P6gIWm3UEYJ1rvbXxAVcWH08R+mEd0g/KKwBFNRD4LxtWFKg1op/c7A
dJcOuClTE62NIH+aM5dsHA==
-----END CERTIFICATE-----
